BL51 BANKED LINKER/LOCATER V6.22                                                        05/20/2019  16:41:19  PAGE 1


BL51 BANKED LINKER/LOCATER V6.22, INVOKED BY:
D:\KEIL4\C51\BIN\BL51.EXE .\output\STARTUP.obj, .\output\key.obj, .\output\Log.obj, .\output\main.obj, .\output\mylib.ob
>> j, .\output\SystemInit.obj, .\output\uart.obj, .\output\LCD1602.obj TO .\output\QYMxFS_TEST PRINT (.\output\QYMxFS_TE
>> ST.m51) RAMSIZE (256)


MEMORY MODEL: SMALL


INPUT MODULES INCLUDED:
  .\output\STARTUP.obj (?C_STARTUP)
  .\output\key.obj (KEY)
  .\output\Log.obj (LOG)
  .\output\main.obj (MAIN)
  .\output\mylib.obj (MYLIB)
  .\output\SystemInit.obj (SYSTEMINIT)
  .\output\uart.obj (UART)
  .\output\LCD1602.obj (LCD1602)
  D:\KEIL4\C51\LIB\C51S.LIB (?C_INIT)
  D:\KEIL4\C51\LIB\C51S.LIB (?C?CLDPTR)
  D:\KEIL4\C51\LIB\C51S.LIB (?C?CLDOPTR)
  D:\KEIL4\C51\LIB\C51S.LIB (?C?CSTOPTR)
  D:\KEIL4\C51\LIB\C51S.LIB (?C?IMUL)
  D:\KEIL4\C51\LIB\C51S.LIB (?C?UIDIV)
  D:\KEIL4\C51\LIB\C51S.LIB (?C?ULCMP)
  D:\KEIL4\C51\LIB\C51S.LIB (?C?LLDIIDATA)
  D:\KEIL4\C51\LIB\C51S.LIB (?C?CCASE)


LINK MAP OF MODULE:  .\output\QYMxFS_TEST (?C_STARTUP)


            TYPE    BASE      LENGTH    RELOCATION   SEGMENT NAME
            -----------------------------------------------------

            * * * * * * *   D A T A   M E M O R Y   * * * * * * *
            REG     0000H     0008H     ABSOLUTE     "REG BANK 0"
            DATA    0008H     0016H     UNIT         ?DT?UART
                    001EH     0002H                  *** GAP ***
            BIT     0020H.0   0000H.2   UNIT         _BIT_GROUP_
                    0020H.2   0000H.6                *** GAP ***
            DATA    0021H     0034H     UNIT         ?DT?KEY
            DATA    0055H     0015H     UNIT         ?DT?MYLIB
            DATA    006AH     000EH     UNIT         _DATA_GROUP_
            IDATA   0078H     0001H     UNIT         ?STACK

            * * * * * * *   C O D E   M E M O R Y   * * * * * * *
            CODE    0000H     0003H     ABSOLUTE     
            CODE    0003H     0008H     UNIT         ?PR?_UART_PUTBYTE?UART
            CODE    000BH     0003H     ABSOLUTE     
            CODE    000EH     0011H     UNIT         ?PR?APP_GET_MSG?KEY
            CODE    001FH     0003H     UNIT         ?PR?_PUT_MSG_LIFO?KEY
                    0022H     0001H                  *** GAP ***
            CODE    0023H     0003H     ABSOLUTE     
            CODE    0026H     064BH     UNIT         ?PR?MSG_TASK?KEY
            CODE    0671H     02E9H     UNIT         ?CO?KEY
            CODE    095AH     014BH     UNIT         ?PR?_UART_TASK?UART
            CODE    0AA5H     0126H     UNIT         ?C?LIB_CODE
BL51 BANKED LINKER/LOCATER V6.22                                                      05/20/2019  16:41:19  PAGE 2


            CODE    0BCBH     0107H     UNIT         ?CO?LCD1602
            CODE    0CD2H     00B0H     UNIT         ?PR?SERIAL_0_INTERRUPT?UART
            CODE    0D82H     009AH     UNIT         ?C_INITSEG
            CODE    0E1CH     0098H     UNIT         ?PR?UART_COMMUNICATION?UART
            CODE    0EB4H     008CH     UNIT         ?C_C51STARTUP
            CODE    0F40H     0089H     UNIT         ?PR?_DELAY_MS?MYLIB
            CODE    0FC9H     0087H     UNIT         ?PR?_POINTPLAYFOLDERNUM?KEY
            CODE    1050H     0073H     UNIT         ?PR?_ITOA4?MYLIB
            CODE    10C3H     006AH     UNIT         ?PR?TIME_TASK?KEY
            CODE    112DH     0068H     UNIT         ?PR?_CHANGEDEVICE?LCD1602
            CODE    1195H     0068H     UNIT         ?PR?LCD1602_INIT?LCD1602
            CODE    11FDH     0063H     UNIT         ?PR?RETURNLCDINIT?LCD1602
            CODE    1260H     0062H     UNIT         ?PR?_POINTPLAYNUM?KEY
            CODE    12C2H     005DH     UNIT         ?PR?_DISPMODLUEERROR?KEY
            CODE    131FH     0059H     UNIT         ?PR?_DISP_PLAYEQ?LCD1602
            CODE    1378H     0054H     UNIT         ?PR?_ITOA3?MYLIB
            CODE    13CCH     0054H     UNIT         ?PR?_DOSUM?UART
            CODE    1420H     004FH     UNIT         ?PR?_DISP_ONLINEDEVICE?LCD1602
            CODE    146FH     0049H     UNIT         ?PR?_DISP_PLAYDEVICE?LCD1602
            CODE    14B8H     0048H     UNIT         ?PR?_DISPDEVICE?LCD1602
            CODE    1500H     0043H     UNIT         ?PR?KEY_SCAN?KEY
            CODE    1543H     0043H     UNIT         ?PR?_SENDCMD?UART
            CODE    1586H     003FH     UNIT         ?PR?INDICATOR_SCAN?KEY
            CODE    15C5H     003EH     UNIT         ?PR?_LCD1602_DISPSTR?LCD1602
            CODE    1603H     003DH     UNIT         ?PR?_DISP_PLAYMODE?LCD1602
            CODE    1640H     0038H     UNIT         ?PR?_GOTONEXTDEVICE?LCD1602
            CODE    1678H     0037H     UNIT         ?PR?_LCD1602_WCMD?LCD1602
            CODE    16AFH     0031H     UNIT         ?PR?KEYSCAN?KEY
            CODE    16E0H     0030H     UNIT         ?PR?MAIN?MAIN
            CODE    1710H     002FH     UNIT         ?PR?SYSTEM_INIT?SYSTEMINIT
            CODE    173FH     002CH     UNIT         ?PR?_LCD1602_WDAT?LCD1602
            CODE    176BH     002BH     UNIT         ?PR?_GOINITDEVICE?LCD1602
            CODE    1796H     0027H     UNIT         ?PR?_UART_SENDCMD?UART
            CODE    17BDH     0025H     UNIT         ?PR?UARTSEND_COLLIDE_TASK?UART
            CODE    17E2H     0022H     UNIT         ?PR?_ITOA2?MYLIB
            CODE    1804H     0020H     UNIT         ?PR?RAM_INIT?SYSTEMINIT
            CODE    1824H     001FH     UNIT         ?PR?DS10MS_CNT?MYLIB
            CODE    1843H     001FH     UNIT         ?PR?DS100MS_CNT?MYLIB
            CODE    1862H     001EH     UNIT         ?PR?_MUSIC_MSG_FILTER?KEY
            CODE    1880H     001BH     UNIT         ?PR?_LCD1602_DISPDAT?LCD1602
            CODE    189BH     0019H     UNIT         ?PR?DS2MS_CNT?MYLIB
            CODE    18B4H     0019H     UNIT         ?PR?LCD1602_BZ?LCD1602
            CODE    18CDH     0018H     UNIT         ?PR?_KEY_FILTER?KEY
            CODE    18E5H     0018H     UNIT         ?PR?_LCD1602_DISPCHAR?LCD1602
            CODE    18FDH     0016H     UNIT         ?PR?_DELAY_US?MYLIB
            CODE    1913H     0016H     UNIT         ?PR?SERIAL_INIT?SYSTEMINIT
            CODE    1929H     0011H     UNIT         ?PR?_ITOA1?MYLIB
            CODE    193AH     0011H     UNIT         ?CO?UART
            CODE    194BH     0010H     UNIT         ?PR?TIMER0_INIT?SYSTEMINIT
            CODE    195BH     0010H     UNIT         ?PR?LCD1602_CLEAR?LCD1602
            CODE    196BH     000BH     UNIT         ?PR?_LCD1602_CLEARLINE?LCD1602
            CODE    1976H     000AH     UNIT         ?PR?TIMER_0_INTERRUPT?SYSTEMINIT
            CODE    1980H     0009H     UNIT         ?PR?DS500MS_CNT?MYLIB
            CODE    1989H     0007H     UNIT         ?PR?_LCD1602_POS?LCD1602



BL51 BANKED LINKER/LOCATER V6.22                                                      05/20/2019  16:41:19  PAGE 3


OVERLAY MAP OF MODULE:   .\output\QYMxFS_TEST (?C_STARTUP)


SEGMENT                                     BIT_GROUP          DATA_GROUP 
  +--> CALLED SEGMENT                    START    LENGTH     START    LENGTH
----------------------------------------------------------------------------
?C_C51STARTUP                            -----    -----      -----    -----
  +--> ?PR?MAIN?MAIN
  +--> ?C_INITSEG

?PR?MAIN?MAIN                            -----    -----      -----    -----
  +--> ?PR?_DELAY_US?MYLIB
  +--> ?PR?_DELAY_MS?MYLIB
  +--> ?PR?SYSTEM_INIT?SYSTEMINIT
  +--> ?PR?LCD1602_INIT?LCD1602
  +--> ?PR?DS2MS_CNT?MYLIB
  +--> ?PR?DS10MS_CNT?MYLIB
  +--> ?PR?DS100MS_CNT?MYLIB
  +--> ?PR?DS500MS_CNT?MYLIB

?PR?_DELAY_US?MYLIB                      -----    -----      0074H    0004H

?PR?_DELAY_MS?MYLIB                      -----    -----      006BH    000CH

?PR?SYSTEM_INIT?SYSTEMINIT               -----    -----      -----    -----
  +--> ?PR?SERIAL_INIT?SYSTEMINIT
  +--> ?PR?TIMER0_INIT?SYSTEMINIT
  +--> ?PR?RAM_INIT?SYSTEMINIT
  +--> ?PR?_ITOA1?MYLIB
  +--> ?PR?_ITOA2?MYLIB
  +--> ?PR?_ITOA3?MYLIB
  +--> ?PR?_ITOA4?MYLIB

?PR?LCD1602_INIT?LCD1602                 -----    -----      -----    -----
  +--> ?PR?_LCD1602_WCMD?LCD1602
  +--> ?PR?_DELAY_MS?MYLIB
  +--> ?PR?_LCD1602_DISPDAT?LCD1602
  +--> ?CO?LCD1602
  +--> ?PR?_LCD1602_DISPSTR?LCD1602
  +--> ?PR?RETURNLCDINIT?LCD1602
  +--> ?PR?_DISP_ONLINEDEVICE?LCD1602

?PR?_LCD1602_WCMD?LCD1602                -----    -----      0073H    0001H
  +--> ?PR?LCD1602_BZ?LCD1602
  +--> ?PR?_DELAY_US?MYLIB

?PR?LCD1602_BZ?LCD1602                   -----    -----      -----    -----
  +--> ?PR?_DELAY_US?MYLIB

?PR?_LCD1602_DISPDAT?LCD1602             -----    -----      006AH    0002H
  +--> ?PR?_LCD1602_POS?LCD1602
  +--> ?PR?_LCD1602_WDAT?LCD1602

?PR?_LCD1602_POS?LCD1602                 -----    -----      -----    -----
  +--> ?PR?_LCD1602_WCMD?LCD1602

?PR?_LCD1602_WDAT?LCD1602                -----    -----      0073H    0001H
BL51 BANKED LINKER/LOCATER V6.22                                                      05/20/2019  16:41:19  PAGE 4


  +--> ?PR?LCD1602_BZ?LCD1602
  +--> ?PR?_DELAY_US?MYLIB

?PR?_LCD1602_DISPSTR?LCD1602             -----    -----      006CH    0005H
  +--> ?PR?_LCD1602_DISPCHAR?LCD1602

?PR?_LCD1602_DISPCHAR?LCD1602            -----    -----      0071H    0002H
  +--> ?PR?_LCD1602_POS?LCD1602
  +--> ?PR?_LCD1602_WDAT?LCD1602

?PR?RETURNLCDINIT?LCD1602                -----    -----      -----    -----
  +--> ?PR?_DISPDEVICE?LCD1602
  +--> ?CO?LCD1602
  +--> ?PR?_LCD1602_DISPSTR?LCD1602

?PR?_DISPDEVICE?LCD1602                  -----    -----      -----    -----
  +--> ?CO?LCD1602
  +--> ?PR?_LCD1602_DISPSTR?LCD1602

?PR?_DISP_ONLINEDEVICE?LCD1602           -----    -----      006AH    0002H
  +--> ?CO?LCD1602
  +--> ?PR?_LCD1602_DISPSTR?LCD1602

?PR?DS2MS_CNT?MYLIB                      -----    -----      -----    -----
  +--> ?PR?MSG_TASK?KEY

?PR?MSG_TASK?KEY                         -----    -----      -----    -----
  +--> ?PR?APP_GET_MSG?KEY
  +--> ?PR?_DISPMODLUEERROR?KEY
  +--> ?PR?RAM_INIT?SYSTEMINIT
  +--> ?PR?LCD1602_INIT?LCD1602
  +--> ?PR?_LCD1602_CLEARLINE?LCD1602
  +--> ?CO?KEY
  +--> ?PR?_LCD1602_DISPSTR?LCD1602
  +--> ?PR?_GOTONEXTDEVICE?LCD1602
  +--> ?PR?LCD1602_CLEAR?LCD1602
  +--> ?PR?_UART_SENDCMD?UART
  +--> ?PR?_ITOA4?MYLIB
  +--> ?PR?_ITOA2?MYLIB
  +--> ?PR?_DISP_PLAYMODE?LCD1602
  +--> ?PR?_DISP_ONLINEDEVICE?LCD1602
  +--> ?PR?_GOINITDEVICE?LCD1602
  +--> ?PR?_CHANGEDEVICE?LCD1602
  +--> ?PR?_DISP_PLAYDEVICE?LCD1602
  +--> ?PR?_DISP_PLAYEQ?LCD1602
  +--> ?PR?_PUT_MSG_LIFO?KEY
  +--> ?PR?_POINTPLAYFOLDERNUM?KEY
  +--> ?PR?_POINTPLAYNUM?KEY

?PR?_DISPMODLUEERROR?KEY                 -----    -----      006AH    0001H
  +--> ?PR?LCD1602_CLEAR?LCD1602
  +--> ?CO?KEY
  +--> ?PR?_LCD1602_DISPSTR?LCD1602

?PR?LCD1602_CLEAR?LCD1602                -----    -----      -----    -----
  +--> ?PR?_LCD1602_WCMD?LCD1602
  +--> ?PR?_DELAY_MS?MYLIB
BL51 BANKED LINKER/LOCATER V6.22                                                      05/20/2019  16:41:19  PAGE 5



?PR?_LCD1602_CLEARLINE?LCD1602           -----    -----      -----    -----
  +--> ?CO?LCD1602
  +--> ?PR?_LCD1602_DISPSTR?LCD1602

?PR?_UART_SENDCMD?UART                   -----    -----      -----    -----
  +--> ?PR?_DOSUM?UART
  +--> ?PR?_SENDCMD?UART

?PR?_DOSUM?UART                          -----    -----      0072H    0005H

?PR?_SENDCMD?UART                        0020H.0  0000H.2    0072H    0002H
  +--> ?PR?_UART_PUTBYTE?UART

?PR?_DISP_PLAYMODE?LCD1602               -----    -----      006AH    0001H
  +--> ?CO?LCD1602
  +--> ?PR?_LCD1602_DISPSTR?LCD1602

?PR?_DISP_PLAYDEVICE?LCD1602             -----    -----      006AH    0001H
  +--> ?CO?LCD1602
  +--> ?PR?_LCD1602_DISPSTR?LCD1602

?PR?_DISP_PLAYEQ?LCD1602                 -----    -----      006AH    0001H
  +--> ?CO?LCD1602
  +--> ?PR?_LCD1602_DISPSTR?LCD1602

?PR?_POINTPLAYFOLDERNUM?KEY              -----    -----      006AH    0001H
  +--> ?PR?LCD1602_CLEAR?LCD1602
  +--> ?CO?KEY
  +--> ?PR?_LCD1602_DISPSTR?LCD1602
  +--> ?PR?_ITOA2?MYLIB
  +--> ?PR?_ITOA3?MYLIB

?PR?_POINTPLAYNUM?KEY                    -----    -----      006AH    0001H
  +--> ?PR?_LCD1602_CLEARLINE?LCD1602
  +--> ?CO?KEY
  +--> ?PR?_LCD1602_DISPSTR?LCD1602
  +--> ?PR?_ITOA4?MYLIB

?PR?DS10MS_CNT?MYLIB                     -----    -----      -----    -----
  +--> ?PR?KEY_SCAN?KEY
  +--> ?PR?UARTSEND_COLLIDE_TASK?UART
  +--> ?PR?UART_COMMUNICATION?UART

?PR?KEY_SCAN?KEY                         -----    -----      -----    -----
  +--> ?PR?KEYSCAN?KEY
  +--> ?PR?_KEY_FILTER?KEY
  +--> ?PR?_MUSIC_MSG_FILTER?KEY

?PR?KEYSCAN?KEY                          -----    -----      -----    -----
  +--> ?CO?KEY

?PR?_MUSIC_MSG_FILTER?KEY                -----    -----      -----    -----
  +--> ?CO?KEY
  +--> ?PR?_PUT_MSG_LIFO?KEY

?PR?UARTSEND_COLLIDE_TASK?UART           -----    -----      -----    -----
BL51 BANKED LINKER/LOCATER V6.22                                                      05/20/2019  16:41:19  PAGE 6


  +--> ?PR?_SENDCMD?UART

?PR?UART_COMMUNICATION?UART              -----    -----      006AH    0008H
  +--> ?PR?_UART_SENDCMD?UART
  +--> ?PR?_UART_TASK?UART

?PR?_UART_TASK?UART                      -----    -----      0072H    0004H
  +--> ?PR?_PUT_MSG_LIFO?KEY

?PR?DS100MS_CNT?MYLIB                    -----    -----      -----    -----
  +--> ?PR?INDICATOR_SCAN?KEY
  +--> ?PR?TIME_TASK?KEY

?PR?TIME_TASK?KEY                        -----    -----      -----    -----
  +--> ?PR?_PUT_MSG_LIFO?KEY



SYMBOL TABLE OF MODULE:  .\output\QYMxFS_TEST (?C_STARTUP)

  VALUE           TYPE          NAME
  ----------------------------------

  -------         MODULE        ?C_STARTUP
  C:0EB4H         SEGMENT       ?C_C51STARTUP
  I:0078H         SEGMENT       ?STACK
  C:0000H         PUBLIC        ?C_STARTUP
  D:00E0H         SYMBOL        ACC
  D:00F0H         SYMBOL        B
  D:0083H         SYMBOL        DPH
  D:0082H         SYMBOL        DPL
  N:0000H         SYMBOL        IBPSTACK
  N:0100H         SYMBOL        IBPSTACKTOP
  N:0080H         SYMBOL        IDATALEN
  C:0EB7H         SYMBOL        IDATALOOP
  N:0000H         SYMBOL        PBPSTACK
  N:0100H         SYMBOL        PBPSTACKTOP
  N:0000H         SYMBOL        PDATALEN
  N:0000H         SYMBOL        PDATASTART
  N:0000H         SYMBOL        PPAGE
  N:0000H         SYMBOL        PPAGEENABLE
  D:00A0H         SYMBOL        PPAGE_SFR
  D:0081H         SYMBOL        SP
  C:0EB4H         SYMBOL        STARTUP1
  N:0000H         SYMBOL        XBPSTACK
  N:0000H         SYMBOL        XBPSTACKTOP
  N:0000H         SYMBOL        XDATALEN
  N:0000H         SYMBOL        XDATASTART
  C:0000H         LINE#         126
  C:0EB4H         LINE#         133
  C:0EB6H         LINE#         134
  C:0EB7H         LINE#         135
  C:0EB8H         LINE#         136
  C:0EBAH         LINE#         185
  C:0EBDH         LINE#         196
  -------         ENDMOD        ?C_STARTUP

BL51 BANKED LINKER/LOCATER V6.22                                                      05/20/2019  16:41:19  PAGE 7


  -------         MODULE        KEY
  C:0000H         SYMBOL        _ICE_DUMMY_
  D:002BH         PUBLIC        CurrentEQ
  D:0080H         PUBLIC        P0
  D:0090H         PUBLIC        P1
  D:002CH         PUBLIC        UartRecvACK
  D:00A0H         PUBLIC        P2
  D:00B0H         PUBLIC        P3
  D:002DH         PUBLIC        DelayTime
  C:10C3H         PUBLIC        Time_Task
  C:12C2H         PUBLIC        _DispModlueError
  C:1586H         PUBLIC        Indicator_Scan
  C:000EH         PUBLIC        app_get_msg
  C:001FH         PUBLIC        _put_msg_lifo
  D:002EH         SYMBOL        FolderNum
  D:002FH         PUBLIC        UDiskCurFile
  D:0031H         PUBLIC        ErrorStatus
  D:0032H         PUBLIC        PointFunc
  D:0033H         PUBLIC        FlashCurFile
  D:0035H         PUBLIC        PlayMode
  D:0036H         PUBLIC        input_number
  D:0038H         PUBLIC        TFTotal
  D:003AH         PUBLIC        FEEDBACK
  C:16AFH         SYMBOL        KeyScan
  D:003BH         SYMBOL        FileNum
  C:18CDH         SYMBOL        _key_filter
  C:091EH         PUBLIC        key_table
  B:00B0H.7       PUBLIC        led
  C:1862H         PUBLIC        _music_msg_filter
  C:0FC9H         PUBLIC        _PointPlayFolderNum
  C:092AH         PUBLIC        adkey_msg_16key_table
  D:003CH         PUBLIC        UartRecvStatus
  D:003DH         PUBLIC        OnlineDevice
  D:003EH         PUBLIC        CurDevNUM
  D:0040H         PUBLIC        TFCurFile
  C:1500H         PUBLIC        key_scan
  D:0042H         PUBLIC        CurrentModule
  D:0043H         PUBLIC        CurDevTotal
  D:0045H         PUBLIC        SysReturnTime
  C:1260H         PUBLIC        _PointPlayNum
  D:0046H         PUBLIC        PlayledStatus
  C:0026H         PUBLIC        MSG_Task
  D:0047H         PUBLIC        UartRecv_100Ms
  D:0048H         PUBLIC        input_vol
  D:00C8H         PUBLIC        T2CON
  D:0049H         PUBLIC        UDiskTotal
  D:004BH         SYMBOL        InputNumCnt
  D:004CH         PUBLIC        PlayDevice
  D:004DH         SYMBOL        MSG_FIFO
  D:004EH         PUBLIC        ResendCount
  D:004FH         PUBLIC        System_Status
  D:0050H         PUBLIC        OutTimeCnt
  D:0051H         PUBLIC        PlayledCnt
  D:0052H         PUBLIC        FlashTotal
  D:0054H         PUBLIC        QueryACKTime
  -------         PROC          _PUT_MSG_LIFO
  D:0007H         SYMBOL        msg
BL51 BANKED LINKER/LOCATER V6.22                                                      05/20/2019  16:41:19  PAGE 8


  C:001FH         LINE#         147
  C:001FH         LINE#         148
  C:001FH         LINE#         149
  C:0021H         LINE#         150
  -------         ENDPROC       _PUT_MSG_LIFO
  -------         PROC          APP_GET_MSG
  -------         DO            
  D:0021H         SYMBOL        msg
  -------         ENDDO         
  C:000EH         LINE#         159
  C:000EH         LINE#         160
  C:000EH         LINE#         163
  C:0011H         LINE#         165
  C:0016H         LINE#         166
  C:0016H         LINE#         167
  C:0019H         LINE#         168
  C:001CH         LINE#         169
  C:001CH         LINE#         171
  C:001CH         LINE#         172
  C:001EH         LINE#         173
  C:001EH         LINE#         174
  -------         ENDPROC       APP_GET_MSG
  -------         PROC          _MUSIC_MSG_FILTER
  D:0007H         SYMBOL        key_status
  D:0005H         SYMBOL        back_last_key
  -------         DO            
  D:0007H         SYMBOL        msg
  -------         ENDDO         
  C:1862H         LINE#         183
  C:1862H         LINE#         184
  C:1862H         LINE#         187
  C:187DH         LINE#         189
  -------         ENDPROC       _MUSIC_MSG_FILTER
  -------         PROC          KEYSCAN
  -------         DO            
  D:0007H         SYMBOL        i
  D:0007H         SYMBOL        temp
  D:0082H         SYMBOL        ptr
  D:0022H         SYMBOL        g_key_value
  -------         ENDDO         
  C:16AFH         LINE#         201
  C:16AFH         LINE#         202
  C:16AFH         LINE#         207
  C:16B2H         LINE#         208
  C:16B7H         LINE#         209
  C:16BBH         LINE#         210
  C:16BBH         LINE#         211
  C:16BEH         LINE#         212
  C:16C3H         LINE#         213
  C:16CEH         LINE#         214
  C:16CEH         LINE#         215
  C:16D3H         LINE#         216
  C:16D3H         LINE#         217
  C:16D5H         LINE#         218
  C:16D6H         LINE#         219
  C:16D6H         LINE#         220
  C:16DAH         LINE#         221
BL51 BANKED LINKER/LOCATER V6.22                                                      05/20/2019  16:41:19  PAGE 9


  C:16DDH         LINE#         222
  C:16DDH         LINE#         223
  C:16DFH         LINE#         224
  -------         ENDPROC       KEYSCAN
  -------         PROC          _KEY_FILTER
  D:0007H         SYMBOL        key
  -------         DO            
  D:0023H         SYMBOL        used_key
  D:0024H         SYMBOL        old_key
  D:0025H         SYMBOL        key_counter
  -------         ENDDO         
  C:18CDH         LINE#         234
  C:18CDH         LINE#         235
  C:18CDH         LINE#         240
  C:18D2H         LINE#         241
  C:18D2H         LINE#         242
  C:18D5H         LINE#         243
  C:18D7H         LINE#         244
  C:18D9H         LINE#         246
  C:18D9H         LINE#         247
  C:18DBH         LINE#         248
  C:18E0H         LINE#         249
  C:18E0H         LINE#         250
  C:18E2H         LINE#         251
  C:18E2H         LINE#         252
  C:18E2H         LINE#         254
  C:18E4H         LINE#         255
  -------         ENDPROC       _KEY_FILTER
  -------         PROC          KEY_SCAN
  -------         DO            
  D:0026H         SYMBOL        last_key
  D:0027H         SYMBOL        key_press_counter
  D:0007H         SYMBOL        cur_key
  D:0006H         SYMBOL        key_status
  D:0005H         SYMBOL        back_last_key
  -------         ENDDO         
  C:1500H         LINE#         264
  C:1500H         LINE#         265
  C:1500H         LINE#         270
  C:1503H         LINE#         272
  C:1506H         LINE#         274
  C:1508H         LINE#         276
  C:150CH         LINE#         277
  C:150CH         LINE#         278
  C:150FH         LINE#         281
  C:1511H         LINE#         283
  C:1516H         LINE#         284
  C:1516H         LINE#         285
  C:1518H         LINE#         286
  C:151AH         LINE#         287
  C:1520H         LINE#         288
  C:1520H         LINE#         289
  C:1522H         LINE#         290
  C:1525H         LINE#         291
  C:1527H         LINE#         293
  C:1527H         LINE#         295
  C:1527H         LINE#         296
BL51 BANKED LINKER/LOCATER V6.22                                                      05/20/2019  16:41:19  PAGE 10


  C:1527H         LINE#         298
  C:1527H         LINE#         299
  C:1529H         LINE#         300
  C:1533H         LINE#         301
  C:1533H         LINE#         302
  C:1536H         LINE#         303
  C:1537H         LINE#         304
  C:1539H         LINE#         306
  C:1539H         LINE#         307
  C:153DH         LINE#         309
  C:153DH         LINE#         310
  C:153DH         LINE#         314
  C:1542H         LINE#         315
  -------         ENDPROC       KEY_SCAN
  -------         PROC          MSG_TASK
  -------         DO            
  D:0028H         SYMBOL        msg
  -------         ENDDO         
  C:0026H         LINE#         324
  C:0026H         LINE#         325
  C:0026H         LINE#         328
  C:002BH         LINE#         330
  C:00BEH         LINE#         331
  C:00BEH         LINE#         335
  C:00BEH         LINE#         336
  C:00C3H         LINE#         337
  C:00C3H         LINE#         338
  C:00C6H         LINE#         343
  C:00C6H         LINE#         344
  C:00C9H         LINE#         345
  C:00CCH         LINE#         347
  C:00CCH         LINE#         351
  C:00CCH         LINE#         352
  C:00D1H         LINE#         353
  C:00DEH         LINE#         354
  C:00E1H         LINE#         355
  C:00E4H         LINE#         356
  C:00E4H         LINE#         357
  C:00E7H         LINE#         358
  C:00E7H         LINE#         359
  C:00ECH         LINE#         360
  C:00F9H         LINE#         361
  C:00FCH         LINE#         362
  C:00FFH         LINE#         363
  C:00FFH         LINE#         364
  C:0102H         LINE#         365
  C:0102H         LINE#         366
  C:0107H         LINE#         367
  C:0114H         LINE#         368
  C:0117H         LINE#         369
  C:011AH         LINE#         370
  C:011AH         LINE#         371
  C:011DH         LINE#         375
  C:011DH         LINE#         376
  C:0122H         LINE#         377
  C:012FH         LINE#         378
  C:0132H         LINE#         379
BL51 BANKED LINKER/LOCATER V6.22                                                      05/20/2019  16:41:19  PAGE 11


  C:0134H         LINE#         380
  C:0134H         LINE#         381
  C:0136H         LINE#         382
  C:0136H         LINE#         383
  C:013BH         LINE#         384
  C:0148H         LINE#         385
  C:014BH         LINE#         386
  C:014DH         LINE#         387
  C:014DH         LINE#         388
  C:014FH         LINE#         389
  C:014FH         LINE#         390
  C:0154H         LINE#         391
  C:0161H         LINE#         392
  C:0164H         LINE#         393
  C:0169H         LINE#         394
  C:0169H         LINE#         395
  C:016CH         LINE#         399
  C:016CH         LINE#         400
  C:016FH         LINE#         401
  C:0170H         LINE#         406
  C:0170H         LINE#         407
  C:0173H         LINE#         408
  C:0180H         LINE#         409
  C:0180H         LINE#         410
  C:0183H         LINE#         415
  C:0183H         LINE#         416
  C:0186H         LINE#         417
  C:0192H         LINE#         419
  C:0197H         LINE#         420
  C:0197H         LINE#         421
  C:019AH         LINE#         422
  C:01A0H         LINE#         423
  C:01A0H         LINE#         424
  C:01A3H         LINE#         425
  C:01A3H         LINE#         427
  C:01A8H         LINE#         428
  C:01A8H         LINE#         429
  C:01AFH         LINE#         430
  C:01B1H         LINE#         431
  C:01B6H         LINE#         432
  C:01B6H         LINE#         433
  C:01BDH         LINE#         434
  C:01BFH         LINE#         435
  C:01C4H         LINE#         436
  C:01C4H         LINE#         437
  C:01CEH         LINE#         438
  C:01CEH         LINE#         439
  C:01D4H         LINE#         440
  C:01D4H         LINE#         441
  C:01D7H         LINE#         446
  C:01D7H         LINE#         447
  C:01DAH         LINE#         448
  C:01DDH         LINE#         449
  C:01E9H         LINE#         450
  C:01F6H         LINE#         451
  C:01FBH         LINE#         452
  C:01FBH         LINE#         453
BL51 BANKED LINKER/LOCATER V6.22                                                      05/20/2019  16:41:19  PAGE 12


  C:0201H         LINE#         454
  C:0207H         LINE#         455
  C:0209H         LINE#         456
  C:020EH         LINE#         457
  C:020EH         LINE#         458
  C:0214H         LINE#         459
  C:021AH         LINE#         460
  C:021CH         LINE#         461
  C:0221H         LINE#         462
  C:0221H         LINE#         463
  C:0227H         LINE#         464
  C:0234H         LINE#         465
  C:0234H         LINE#         466
  C:0238H         LINE#         467
  C:0238H         LINE#         468
  C:0238H         LINE#         469
  C:023BH         LINE#         475
  C:023BH         LINE#         476
  C:023EH         LINE#         477
  C:024AH         LINE#         478
  C:024FH         LINE#         479
  C:024FH         LINE#         480
  C:0252H         LINE#         481
  C:0258H         LINE#         482
  C:0258H         LINE#         483
  C:025AH         LINE#         484
  C:025AH         LINE#         485
  C:025FH         LINE#         486
  C:025FH         LINE#         487
  C:0266H         LINE#         488
  C:0268H         LINE#         489
  C:026DH         LINE#         490
  C:026DH         LINE#         491
  C:0274H         LINE#         492
  C:0276H         LINE#         493
  C:027BH         LINE#         494
  C:027BH         LINE#         495
  C:0285H         LINE#         496
  C:0285H         LINE#         497
  C:0292H         LINE#         499
  C:0292H         LINE#         500
  C:0295H         LINE#         505
  C:0295H         LINE#         506
  C:0298H         LINE#         507
  C:029BH         LINE#         508
  C:02A7H         LINE#         509
  C:02B4H         LINE#         510
  C:02B9H         LINE#         511
  C:02B9H         LINE#         512
  C:02BFH         LINE#         513
  C:02C5H         LINE#         514
  C:02C7H         LINE#         515
  C:02CCH         LINE#         516
  C:02CCH         LINE#         517
  C:02D2H         LINE#         518
  C:02D8H         LINE#         519
  C:02DAH         LINE#         520
BL51 BANKED LINKER/LOCATER V6.22                                                      05/20/2019  16:41:19  PAGE 13


  C:02DFH         LINE#         521
  C:02DFH         LINE#         522
  C:02E5H         LINE#         523
  C:02F2H         LINE#         524
  C:02F2H         LINE#         525
  C:02F9H         LINE#         526
  C:02F9H         LINE#         527
  C:02F9H         LINE#         528
  C:02FBH         LINE#         532
  C:02FBH         LINE#         533
  C:02FEH         LINE#         534
  C:030AH         LINE#         542
  C:030AH         LINE#         543
  C:0317H         LINE#         544
  C:0321H         LINE#         545
  C:0321H         LINE#         546
  C:0321H         LINE#         547
  C:0324H         LINE#         552
  C:0324H         LINE#         553
  C:0327H         LINE#         554
  C:032AH         LINE#         555
  C:0337H         LINE#         556
  C:033CH         LINE#         557
  C:0344H         LINE#         558
  C:0344H         LINE#         559
  C:0347H         LINE#         564
  C:0347H         LINE#         565
  C:034AH         LINE#         566
  C:0356H         LINE#         568
  C:035DH         LINE#         569
  C:035DH         LINE#         570
  C:0368H         LINE#         571
  C:036AH         LINE#         574
  C:036AH         LINE#         575
  C:0375H         LINE#         576
  C:037FH         LINE#         577
  C:037FH         LINE#         578
  C:037FH         LINE#         579
  C:0381H         LINE#         584
  C:0381H         LINE#         585
  C:0384H         LINE#         586
  C:0387H         LINE#         587
  C:0387H         LINE#         588
  C:0387H         LINE#         589
  C:038AH         LINE#         595
  C:038AH         LINE#         596
  C:038DH         LINE#         597
  C:0399H         LINE#         599
  C:03A0H         LINE#         600
  C:03A0H         LINE#         601
  C:03ABH         LINE#         602
  C:03ADH         LINE#         605
  C:03ADH         LINE#         606
  C:03B8H         LINE#         607
  C:03C2H         LINE#         608
  C:03C2H         LINE#         609
  C:03C5H         LINE#         610
BL51 BANKED LINKER/LOCATER V6.22                                                      05/20/2019  16:41:19  PAGE 14


  C:03C6H         LINE#         615
  C:03C6H         LINE#         616
  C:03C9H         LINE#         617
  C:03CCH         LINE#         618
  C:03D1H         LINE#         619
  C:03D1H         LINE#         620
  C:03D4H         LINE#         625
  C:03D4H         LINE#         626
  C:03D7H         LINE#         627
  C:03E3H         LINE#         628
  C:03F0H         LINE#         629
  C:03F5H         LINE#         630
  C:03FAH         LINE#         631
  C:03FDH         LINE#         632
  C:03FDH         LINE#         633
  C:0400H         LINE#         656
  C:0400H         LINE#         657
  C:0403H         LINE#         658
  C:040FH         LINE#         659
  C:0411H         LINE#         660
  C:0416H         LINE#         661
  C:0416H         LINE#         662
  C:0419H         LINE#         663
  C:0419H         LINE#         664
  C:041EH         LINE#         665
  C:0423H         LINE#         666
  C:042CH         LINE#         668
  C:042CH         LINE#         669
  C:042FH         LINE#         673
  C:042FH         LINE#         674
  C:0432H         LINE#         675
  C:043EH         LINE#         676
  C:0440H         LINE#         677
  C:0445H         LINE#         678
  C:0445H         LINE#         679
  C:0448H         LINE#         680
  C:0448H         LINE#         681
  C:0454H         LINE#         682
  C:0459H         LINE#         683
  C:0459H         LINE#         684
  C:045CH         LINE#         689
  C:045CH         LINE#         690
  C:0466H         LINE#         692
  C:046BH         LINE#         693
  C:0478H         LINE#         694
  C:0478H         LINE#         695
  C:047BH         LINE#         699
  C:047BH         LINE#         700
  C:0485H         LINE#         702
  C:048AH         LINE#         703
  C:0490H         LINE#         704
  C:0490H         LINE#         705
  C:0492H         LINE#         709
  C:0492H         LINE#         710
  C:0499H         LINE#         711
  C:0499H         LINE#         712
  C:049BH         LINE#         713
BL51 BANKED LINKER/LOCATER V6.22                                                      05/20/2019  16:41:19  PAGE 15


  C:049BH         LINE#         714
  C:04A5H         LINE#         716
  C:04AAH         LINE#         717
  C:04B0H         LINE#         718
  C:04B0H         LINE#         719
  C:04B2H         LINE#         724
  C:04B2H         LINE#         725
  C:04BCH         LINE#         727
  C:04C1H         LINE#         728
  C:04CEH         LINE#         729
  C:04CEH         LINE#         730
  C:04D1H         LINE#         735
  C:04D1H         LINE#         736
  C:04F2H         LINE#         737
  C:04F7H         LINE#         738
  C:04FEH         LINE#         739
  C:04FEH         LINE#         740
  C:0509H         LINE#         741
  C:050BH         LINE#         743
  C:050DH         LINE#         745
  C:050DH         LINE#         746
  C:0518H         LINE#         747
  C:051AH         LINE#         748
  C:051AH         LINE#         749
  C:051CH         LINE#         753
  C:051CH         LINE#         754
  C:0527H         LINE#         756
  C:0527H         LINE#         757
  C:052AH         LINE#         762
  C:052AH         LINE#         763
  C:0534H         LINE#         765
  C:0534H         LINE#         766
  C:0537H         LINE#         770
  C:0537H         LINE#         771
  C:0539H         LINE#         772
  C:053BH         LINE#         773
  C:053BH         LINE#         774
  C:053DH         LINE#         775
  C:0542H         LINE#         776
  C:0542H         LINE#         777
  C:0545H         LINE#         778
  C:0547H         LINE#         779
  C:054EH         LINE#         780
  C:054EH         LINE#         781
  C:0551H         LINE#         782
  C:0551H         LINE#         783
  C:055DH         LINE#         785
  C:0562H         LINE#         786
  C:056FH         LINE#         787
  C:0572H         LINE#         788
  C:0577H         LINE#         789
  C:057FH         LINE#         790
  C:0582H         LINE#         795
  C:0582H         LINE#         797
  C:0587H         LINE#         798
  C:0587H         LINE#         803
  C:0587H         LINE#         805
BL51 BANKED LINKER/LOCATER V6.22                                                      05/20/2019  16:41:19  PAGE 16


  C:058AH         LINE#         806
  C:058FH         LINE#         807
  C:058FH         LINE#         808
  C:0595H         LINE#         809
  C:0597H         LINE#         811
  C:0597H         LINE#         812
  C:059CH         LINE#         813
  C:059CH         LINE#         814
  C:05A7H         LINE#         815
  C:05ADH         LINE#         816
  C:05AFH         LINE#         817
  C:05B4H         LINE#         818
  C:05B4H         LINE#         819
  C:05BFH         LINE#         820
  C:05C5H         LINE#         821
  C:05C7H         LINE#         822
  C:05CDH         LINE#         823
  C:05CDH         LINE#         824
  C:05D5H         LINE#         825
  C:05D8H         LINE#         826
  C:05DAH         LINE#         827
  C:05E5H         LINE#         828
  C:05F2H         LINE#         829
  C:05F2H         LINE#         830
  C:05F2H         LINE#         831
  C:05F7H         LINE#         832
  C:05F7H         LINE#         833
  C:05F9H         LINE#         839
  C:05F9H         LINE#         840
  C:0600H         LINE#         841
  C:0600H         LINE#         842
  C:0603H         LINE#         843
  C:0603H         LINE#         844
  C:0606H         LINE#         845
  C:060BH         LINE#         846
  C:0610H         LINE#         847
  C:0610H         LINE#         848
  C:0618H         LINE#         849
  C:061AH         LINE#         850
  C:061FH         LINE#         851
  C:061FH         LINE#         852
  C:0627H         LINE#         853
  C:0629H         LINE#         854
  C:062FH         LINE#         855
  C:062FH         LINE#         856
  C:063BH         LINE#         857
  C:063BH         LINE#         858
  C:063BH         LINE#         864
  C:063BH         LINE#         865
  C:0640H         LINE#         866
  C:0644H         LINE#         867
  C:0644H         LINE#         868
  C:0647H         LINE#         869
  C:064DH         LINE#         870
  C:064FH         LINE#         872
  C:064FH         LINE#         873
  C:0652H         LINE#         874
BL51 BANKED LINKER/LOCATER V6.22                                                      05/20/2019  16:41:19  PAGE 17


  C:065FH         LINE#         875
  C:065FH         LINE#         876
  C:0662H         LINE#         877
  C:0663H         LINE#         882
  C:0663H         LINE#         883
  C:0663H         LINE#         884
  C:0663H         LINE#         885
  C:0663H         LINE#         886
  C:0663H         LINE#         887
  C:0663H         LINE#         888
  C:0663H         LINE#         889
  C:0663H         LINE#         890
  C:0663H         LINE#         891
  C:0663H         LINE#         892
  C:066AH         LINE#         893
  C:066AH         LINE#         894
  C:066DH         LINE#         895
  C:066DH         LINE#         897
  C:066DH         LINE#         898
  C:0670H         LINE#         899
  C:0670H         LINE#         900
  C:0670H         LINE#         901
  C:0670H         LINE#         902
  -------         ENDPROC       MSG_TASK
  -------         PROC          _DISPMODLUEERROR
  D:006AH         SYMBOL        error
  C:12C2H         LINE#         911
  C:12C4H         LINE#         912
  C:12C4H         LINE#         913
  C:12C7H         LINE#         914
  C:12D3H         LINE#         915
  C:12E9H         LINE#         916
  C:12E9H         LINE#         917
  C:12E9H         LINE#         919
  C:12E9H         LINE#         920
  C:12E9H         LINE#         921
  C:12EFH         LINE#         922
  C:12F1H         LINE#         923
  C:12F1H         LINE#         924
  C:12F7H         LINE#         925
  C:12F9H         LINE#         926
  C:12F9H         LINE#         927
  C:12FFH         LINE#         928
  C:1301H         LINE#         929
  C:1301H         LINE#         930
  C:1307H         LINE#         931
  C:1309H         LINE#         932
  C:1309H         LINE#         933
  C:130FH         LINE#         934
  C:1311H         LINE#         935
  C:1311H         LINE#         936
  C:131EH         LINE#         937
  C:131EH         LINE#         938
  C:131EH         LINE#         939
  -------         ENDPROC       _DISPMODLUEERROR
  -------         PROC          _POINTPLAYNUM
  D:006AH         SYMBOL        num
BL51 BANKED LINKER/LOCATER V6.22                                                      05/20/2019  16:41:19  PAGE 18


  C:1260H         LINE#         948
  C:1262H         LINE#         949
  C:1262H         LINE#         951
  C:1266H         LINE#         952
  C:1266H         LINE#         953
  C:126BH         LINE#         954
  C:126BH         LINE#         955
  C:126EH         LINE#         956
  C:1271H         LINE#         957
  C:127DH         LINE#         958
  C:128AH         LINE#         960
  C:129EH         LINE#         961
  C:12A9H         LINE#         962
  C:12A9H         LINE#         963
  C:12AEH         LINE#         964
  C:12AEH         LINE#         965
  C:12B5H         LINE#         966
  -------         ENDPROC       _POINTPLAYNUM
  -------         PROC          _POINTPLAYFOLDERNUM
  D:006AH         SYMBOL        num
  -------         DO            
  D:0029H         SYMBOL        InputCnt
  -------         ENDDO         
  C:0FC9H         LINE#         976
  C:0FCBH         LINE#         977
  C:0FCBH         LINE#         980
  C:0FCFH         LINE#         981
  C:0FCFH         LINE#         982
  C:0FD2H         LINE#         983
  C:0FD5H         LINE#         984
  C:0FE1H         LINE#         985
  C:0FEEH         LINE#         986
  C:0FEEH         LINE#         987
  C:0FF1H         LINE#         988
  C:0FF4H         LINE#         989
  C:0FFBH         LINE#         990
  C:0FFBH         LINE#         991
  C:1005H         LINE#         992
  C:100CH         LINE#         993
  C:100CH         LINE#         994
  C:100FH         LINE#         995
  C:100FH         LINE#         996
  C:1014H         LINE#         997
  C:101EH         LINE#         998
  C:1020H         LINE#         1000
  C:1020H         LINE#         1001
  C:102AH         LINE#         1002
  C:102FH         LINE#         1003
  C:102FH         LINE#         1004
  C:1032H         LINE#         1005
  C:1032H         LINE#         1006
  C:1039H         LINE#         1007
  C:1046H         LINE#         1008
  C:1046H         LINE#         1009
  C:1049H         LINE#         1010
  C:1049H         LINE#         1011
  C:104CH         LINE#         1012
BL51 BANKED LINKER/LOCATER V6.22                                                      05/20/2019  16:41:19  PAGE 19


  C:104FH         LINE#         1013
  C:104FH         LINE#         1014
  -------         ENDPROC       _POINTPLAYFOLDERNUM
  -------         PROC          INDICATOR_SCAN
  -------         DO            
  D:002AH         SYMBOL        flash_cnt
  -------         ENDDO         
  C:1586H         LINE#         1023
  C:1586H         LINE#         1024
  C:1586H         LINE#         1027
  C:1599H         LINE#         1028
  C:1599H         LINE#         1029
  C:1599H         LINE#         1030
  C:159BH         LINE#         1031
  C:159CH         LINE#         1032
  C:159CH         LINE#         1033
  C:159EH         LINE#         1034
  C:159FH         LINE#         1035
  C:159FH         LINE#         1036
  C:159FH         LINE#         1037
  C:15A1H         LINE#         1038
  C:15A1H         LINE#         1039
  C:15AAH         LINE#         1040
  C:15AAH         LINE#         1041
  C:15ADH         LINE#         1042
  C:15B2H         LINE#         1043
  C:15B2H         LINE#         1044
  C:15B3H         LINE#         1045
  C:15B3H         LINE#         1046
  C:15BCH         LINE#         1047
  C:15BCH         LINE#         1048
  C:15BFH         LINE#         1049
  C:15C1H         LINE#         1050
  C:15C2H         LINE#         1052
  C:15C2H         LINE#         1053
  C:15C4H         LINE#         1054
  C:15C4H         LINE#         1055
  C:15C4H         LINE#         1056
  C:15C4H         LINE#         1057
  -------         ENDPROC       INDICATOR_SCAN
  -------         PROC          TIME_TASK
  C:10C3H         LINE#         1066
  C:10C3H         LINE#         1067
  C:10C3H         LINE#         1068
  C:10CAH         LINE#         1069
  C:10CAH         LINE#         1070
  C:10CFH         LINE#         1071
  C:10CFH         LINE#         1072
  C:10D6H         LINE#         1073
  C:10D6H         LINE#         1074
  C:10D9H         LINE#         1075
  C:10D9H         LINE#         1076
  C:10E0H         LINE#         1077
  C:10E0H         LINE#         1078
  C:10E3H         LINE#         1079
  C:10E3H         LINE#         1080
  C:10EAH         LINE#         1081
BL51 BANKED LINKER/LOCATER V6.22                                                      05/20/2019  16:41:19  PAGE 20


  C:10EAH         LINE#         1082
  C:10EFH         LINE#         1083
  C:10EFH         LINE#         1084
  C:10F6H         LINE#         1085
  C:10F6H         LINE#         1086
  C:10FBH         LINE#         1087
  C:10FBH         LINE#         1088
  C:10FBH         LINE#         1089
  C:10FDH         LINE#         1090
  C:1102H         LINE#         1091
  C:1102H         LINE#         1092
  C:1107H         LINE#         1093
  C:1107H         LINE#         1094
  C:1107H         LINE#         1095
  C:110EH         LINE#         1096
  C:110EH         LINE#         1097
  C:1112H         LINE#         1098
  C:1112H         LINE#         1099
  C:1115H         LINE#         1100
  C:1118H         LINE#         1101
  C:1118H         LINE#         1102
  C:1118H         LINE#         1103
  C:111FH         LINE#         1104
  C:111FH         LINE#         1105
  C:1123H         LINE#         1106
  C:1123H         LINE#         1107
  C:1126H         LINE#         1108
  C:1127H         LINE#         1110
  C:1127H         LINE#         1111
  C:112CH         LINE#         1112
  C:112CH         LINE#         1113
  C:112CH         LINE#         1114
  -------         ENDPROC       TIME_TASK
  -------         ENDMOD        KEY

  -------         MODULE        LOG
  C:0000H         SYMBOL        _ICE_DUMMY_
  -------         ENDMOD        LOG

  -------         MODULE        MAIN
  C:0000H         SYMBOL        _ICE_DUMMY_
  D:0080H         PUBLIC        P0
  D:0090H         PUBLIC        P1
  D:00A0H         PUBLIC        P2
  D:00B0H         PUBLIC        P3
  C:16E0H         PUBLIC        main
  D:00C8H         PUBLIC        T2CON
  -------         PROC          MAIN
  C:16E0H         LINE#         21
  C:16E0H         LINE#         22
  C:16E0H         LINE#         23
  C:16EBH         LINE#         24
  C:16F6H         LINE#         26
  C:16F9H         LINE#         27
  C:16FCH         LINE#         31
  C:1701H         LINE#         32
  C:1701H         LINE#         33
BL51 BANKED LINKER/LOCATER V6.22                                                      05/20/2019  16:41:19  PAGE 21


  C:1704H         LINE#         34
  C:1707H         LINE#         35
  C:170AH         LINE#         36
  C:170DH         LINE#         37
  C:170FH         LINE#         38
  -------         ENDPROC       MAIN
  -------         ENDMOD        MAIN

  -------         MODULE        MYLIB
  C:0000H         SYMBOL        _ICE_DUMMY_
  D:0080H         PUBLIC        P0
  D:0090H         PUBLIC        P1
  D:00A0H         PUBLIC        P2
  D:00B0H         PUBLIC        P3
  C:1843H         PUBLIC        DS100MS_CNT
  C:0F40H         PUBLIC        _Delay_Ms
  C:1980H         PUBLIC        DS500MS_CNT
  D:0058H         PUBLIC        bcd_number
  C:18FDH         PUBLIC        _Delay_Us
  D:005DH         PUBLIC        asc_number
  D:00E1H         PUBLIC        WDTCTRL
  C:189BH         PUBLIC        DS2MS_CNT
  D:0068H         PUBLIC        Status0
  D:0069H         PUBLIC        Status1
  C:1824H         PUBLIC        DS10MS_CNT
  C:1929H         PUBLIC        _itoa1
  C:17E2H         PUBLIC        _itoa2
  C:1378H         PUBLIC        _itoa3
  C:1050H         PUBLIC        _itoa4
  D:00C8H         PUBLIC        T2CON
  -------         PROC          _DELAY_US
  D:0074H         SYMBOL        z
  C:18FDH         LINE#         19
  C:1905H         LINE#         20
  C:1905H         LINE#         21
  C:1912H         LINE#         22
  -------         ENDPROC       _DELAY_US
  -------         PROC          _DELAY_MS
  D:006BH         SYMBOL        z
  -------         DO            
  D:006FH         SYMBOL        x
  D:0073H         SYMBOL        y
  -------         ENDDO         
  C:0F40H         LINE#         26
  C:0F48H         LINE#         27
  C:0F48H         LINE#         28
  C:0F59H         LINE#         29
  C:0F75H         LINE#         30
  C:0FC8H         LINE#         31
  -------         ENDPROC       _DELAY_MS
  -------         PROC          _ITOA1
  D:0007H         SYMBOL        i
  C:1929H         LINE#         40
  C:1929H         LINE#         41
  C:1929H         LINE#         42
  C:1936H         LINE#         43
  C:1939H         LINE#         44
BL51 BANKED LINKER/LOCATER V6.22                                                      05/20/2019  16:41:19  PAGE 22


  -------         ENDPROC       _ITOA1
  -------         PROC          _ITOA2
  D:0007H         SYMBOL        i
  C:17E2H         LINE#         53
  C:17E2H         LINE#         54
  C:17E2H         LINE#         55
  C:17F3H         LINE#         56
  C:1800H         LINE#         57
  C:1803H         LINE#         58
  -------         ENDPROC       _ITOA2
  -------         PROC          _ITOA3
  D:0002H         SYMBOL        i
  C:1378H         LINE#         67
  C:137CH         LINE#         68
  C:137CH         LINE#         69
  C:1397H         LINE#         70
  C:13B6H         LINE#         71
  C:13C8H         LINE#         72
  C:13CBH         LINE#         73
  -------         ENDPROC       _ITOA3
  -------         PROC          _ITOA4
  D:0002H         SYMBOL        i
  C:1050H         LINE#         82
  C:1054H         LINE#         83
  C:1054H         LINE#         84
  C:106FH         LINE#         85
  C:108EH         LINE#         86
  C:10ADH         LINE#         87
  C:10BFH         LINE#         88
  C:10C2H         LINE#         89
  -------         ENDPROC       _ITOA4
  -------         PROC          DS2MS_CNT
  -------         DO            
  D:0055H         SYMBOL        count
  -------         ENDDO         
  C:189BH         LINE#         100
  C:189BH         LINE#         101
  C:189BH         LINE#         103
  C:18A0H         LINE#         104
  C:18A0H         LINE#         105
  C:18A3H         LINE#         111
  C:18A6H         LINE#         113
  C:18ADH         LINE#         114
  C:18ADH         LINE#         115
  C:18B0H         LINE#         116
  C:18B3H         LINE#         117
  C:18B3H         LINE#         118
  C:18B3H         LINE#         119
  -------         ENDPROC       DS2MS_CNT
  -------         PROC          DS10MS_CNT
  -------         DO            
  D:0056H         SYMBOL        counter
  -------         ENDDO         
  C:1824H         LINE#         129
  C:1824H         LINE#         130
  C:1824H         LINE#         132
  C:1829H         LINE#         133
BL51 BANKED LINKER/LOCATER V6.22                                                      05/20/2019  16:41:19  PAGE 23


  C:1829H         LINE#         134
  C:182CH         LINE#         140
  C:182FH         LINE#         141
  C:1832H         LINE#         142
  C:1835H         LINE#         143
  C:183CH         LINE#         144
  C:183CH         LINE#         145
  C:183FH         LINE#         146
  C:1842H         LINE#         147
  C:1842H         LINE#         148
  C:1842H         LINE#         149
  -------         ENDPROC       DS10MS_CNT
  -------         PROC          DS100MS_CNT
  -------         DO            
  D:0057H         SYMBOL        counter
  -------         ENDDO         
  C:1843H         LINE#         159
  C:1843H         LINE#         160
  C:1843H         LINE#         162
  C:1848H         LINE#         163
  C:1848H         LINE#         164
  C:184BH         LINE#         171
  C:184EH         LINE#         172
  C:1851H         LINE#         173
  C:1854H         LINE#         174
  C:185BH         LINE#         175
  C:185BH         LINE#         176
  C:185EH         LINE#         177
  C:1861H         LINE#         178
  C:1861H         LINE#         179
  C:1861H         LINE#         180
  -------         ENDPROC       DS100MS_CNT
  -------         PROC          DS500MS_CNT
  C:1980H         LINE#         191
  C:1980H         LINE#         192
  C:1980H         LINE#         193
  C:1985H         LINE#         194
  C:1985H         LINE#         195
  C:1988H         LINE#         203
  C:1988H         LINE#         204
  -------         ENDPROC       DS500MS_CNT
  -------         ENDMOD        MYLIB

  -------         MODULE        SYSTEMINIT
  C:0000H         SYMBOL        _ICE_DUMMY_
  C:1710H         PUBLIC        System_Init
  D:0080H         PUBLIC        P0
  D:0090H         PUBLIC        P1
  D:00A0H         PUBLIC        P2
  D:00B0H         PUBLIC        P3
  B:00A8H.7       PUBLIC        EA
  B:00A8H.4       PUBLIC        ES
  C:194BH         PUBLIC        Timer0_Init
  D:0087H         PUBLIC        PCON
  D:0098H         PUBLIC        SCON
  D:0089H         PUBLIC        TMOD
  B:00A8H.1       PUBLIC        ET0
BL51 BANKED LINKER/LOCATER V6.22                                                      05/20/2019  16:41:19  PAGE 24


  D:008CH         PUBLIC        TH0
  D:008DH         PUBLIC        TH1
  D:008AH         PUBLIC        TL0
  D:008BH         PUBLIC        TL1
  B:0088H.4       PUBLIC        TR0
  C:1804H         PUBLIC        RAM_Init
  B:0088H.6       PUBLIC        TR1
  B:0098H.4       PUBLIC        REN
  D:00C8H         PUBLIC        T2CON
  C:1976H         PUBLIC        Timer_0_interrupt
  C:1913H         PUBLIC        Serial_init
  -------         PROC          TIMER0_INIT
  C:194BH         LINE#         23
  C:194BH         LINE#         24
  C:194BH         LINE#         25
  C:194EH         LINE#         26
  C:1950H         LINE#         27
  C:1952H         LINE#         28
  C:1954H         LINE#         29
  C:1957H         LINE#         30
  C:195AH         LINE#         31
  -------         ENDPROC       TIMER0_INIT
  -------         PROC          SERIAL_INIT
  C:1913H         LINE#         40
  C:1913H         LINE#         41
  C:1913H         LINE#         42
  C:1916H         LINE#         43
  C:1919H         LINE#         45
  C:191CH         LINE#         47
  C:191FH         LINE#         48
  C:1922H         LINE#         50
  C:1924H         LINE#         51
  C:1926H         LINE#         52
  C:1928H         LINE#         53
  -------         ENDPROC       SERIAL_INIT
  -------         PROC          SYSTEM_INIT
  C:1710H         LINE#         61
  C:1710H         LINE#         62
  C:1710H         LINE#         63
  C:1713H         LINE#         64
  C:1716H         LINE#         65
  C:1719H         LINE#         66
  C:171EH         LINE#         67
  C:1723H         LINE#         68
  C:1729H         LINE#         69
  C:172FH         LINE#         70
  C:1732H         LINE#         71
  C:1735H         LINE#         72
  C:1738H         LINE#         73
  C:173BH         LINE#         74
  C:173EH         LINE#         75
  -------         ENDPROC       SYSTEM_INIT
  -------         PROC          RAM_INIT
  C:1804H         LINE#         84
  C:1804H         LINE#         85
  C:1804H         LINE#         86
  C:1807H         LINE#         87
BL51 BANKED LINKER/LOCATER V6.22                                                      05/20/2019  16:41:19  PAGE 25


  C:180AH         LINE#         88
  C:180DH         LINE#         89
  C:1810H         LINE#         90
  C:1813H         LINE#         91
  C:1816H         LINE#         92
  C:1819H         LINE#         93
  C:181CH         LINE#         94
  C:181EH         LINE#         95
  C:1820H         LINE#         96
  C:1823H         LINE#         97
  -------         ENDPROC       RAM_INIT
  -------         PROC          TIMER_0_INTERRUPT
  C:1976H         LINE#         105
  C:1976H         LINE#         107
  C:1979H         LINE#         108
  C:197CH         LINE#         109
  C:197FH         LINE#         110
  -------         ENDPROC       TIMER_0_INTERRUPT
  -------         ENDMOD        SYSTEMINIT

  -------         MODULE        UART
  C:0000H         SYMBOL        _ICE_DUMMY_
  C:0E1CH         PUBLIC        Uart_communication
  D:0080H         PUBLIC        P0
  D:0090H         PUBLIC        P1
  D:00A0H         PUBLIC        P2
  D:0008H         SYMBOL        ResendDataLen
  D:00B0H         PUBLIC        P3
  C:095AH         PUBLIC        _Uart_Task
  B:00A8H.4       PUBLIC        ES
  B:0098H.0       PUBLIC        RI
  B:0098H.1       PUBLIC        TI
  C:1543H         PUBLIC        _SendCmd
  D:0009H         SYMBOL        SendDataLen
  D:000AH         SYMBOL        Send_buf
  D:0014H         SYMBOL        Recv_buf
  D:0099H         PUBLIC        SBUF
  C:17BDH         PUBLIC        UartSend_Collide_Task
  C:193AH         PUBLIC        hex
  C:0CD2H         PUBLIC        Serial_0_interrupt
  C:0003H         PUBLIC        _Uart_PutByte
  C:1796H         PUBLIC        _Uart_SendCMD
  D:00C8H         PUBLIC        T2CON
  C:13CCH         PUBLIC        _DoSum
  -------         PROC          _UART_PUTBYTE
  D:0007H         SYMBOL        ch
  C:0003H         LINE#         36
  C:0003H         LINE#         37
  C:0003H         LINE#         38
  C:0005H         LINE#         39
  C:0008H         LINE#         40
  C:000AH         LINE#         41
  -------         ENDPROC       _UART_PUTBYTE
  -------         PROC          _SENDCMD
  D:0006H         SYMBOL        len
  B:0020H.0       SYMBOL        flag
  D:0073H         SYMBOL        time
BL51 BANKED LINKER/LOCATER V6.22                                                      05/20/2019  16:41:19  PAGE 26


  -------         DO            
  B:0020H.1       SYMBOL        Status
  D:0005H         SYMBOL        i
  -------         ENDDO         
  C:1543H         LINE#         85
  C:1545H         LINE#         86
  C:1545H         LINE#         87
  C:1547H         LINE#         88
  C:1549H         LINE#         90
  C:154DH         LINE#         91
  C:154FH         LINE#         92
  C:1551H         LINE#         93
  C:1556H         LINE#         94
  C:155BH         LINE#         95
  C:155BH         LINE#         96
  C:1564H         LINE#         97
  C:1567H         LINE#         98
  C:156CH         LINE#         99
  C:1570H         LINE#         100
  C:1573H         LINE#         101
  C:1573H         LINE#         102
  C:157BH         LINE#         103
  C:157CH         LINE#         105
  C:157CH         LINE#         106
  C:1585H         LINE#         107
  C:1585H         LINE#         108
  -------         ENDPROC       _SENDCMD
  -------         PROC          SERIAL_0_INTERRUPT
  -------         DO            
  D:0007H         SYMBOL        UartTemp
  -------         ENDDO         
  C:0CD2H         LINE#         117
  C:0CE1H         LINE#         120
  C:0CE1H         LINE#         121
  C:0CE7H         LINE#         122
  C:0CE7H         LINE#         123
  C:0CE9H         LINE#         124
  C:0CEBH         LINE#         125
  C:0CF0H         LINE#         126
  C:0CF0H         LINE#         127
  C:0CF3H         LINE#         128
  C:0CF3H         LINE#         129
  C:0D1FH         LINE#         130
  C:0D1FH         LINE#         131
  C:0D1FH         LINE#         132
  C:0D22H         LINE#         133
  C:0D22H         LINE#         134
  C:0D25H         LINE#         135
  C:0D28H         LINE#         136
  C:0D2AH         LINE#         138
  C:0D2AH         LINE#         139
  C:0D2AH         LINE#         140
  C:0D2AH         LINE#         141
  C:0D2CH         LINE#         142
  C:0D2CH         LINE#         143
  C:0D2EH         LINE#         144
  C:0D31H         LINE#         145
BL51 BANKED LINKER/LOCATER V6.22                                                      05/20/2019  16:41:19  PAGE 27


  C:0D33H         LINE#         146
  C:0D33H         LINE#         147
  C:0D35H         LINE#         148
  C:0D38H         LINE#         149
  C:0D3AH         LINE#         150
  C:0D3AH         LINE#         151
  C:0D3CH         LINE#         152
  C:0D3FH         LINE#         153
  C:0D41H         LINE#         154
  C:0D41H         LINE#         155
  C:0D43H         LINE#         156
  C:0D46H         LINE#         157
  C:0D48H         LINE#         158
  C:0D48H         LINE#         159
  C:0D4AH         LINE#         160
  C:0D4DH         LINE#         161
  C:0D4FH         LINE#         162
  C:0D4FH         LINE#         163
  C:0D51H         LINE#         164
  C:0D54H         LINE#         165
  C:0D56H         LINE#         166
  C:0D56H         LINE#         167
  C:0D58H         LINE#         168
  C:0D5BH         LINE#         169
  C:0D5DH         LINE#         170
  C:0D5DH         LINE#         171
  C:0D5FH         LINE#         172
  C:0D62H         LINE#         173
  C:0D64H         LINE#         174
  C:0D64H         LINE#         175
  C:0D67H         LINE#         176
  C:0D67H         LINE#         177
  C:0D6AH         LINE#         178
  C:0D6DH         LINE#         179
  C:0D6DH         LINE#         180
  C:0D6FH         LINE#         182
  C:0D6FH         LINE#         183
  C:0D72H         LINE#         184
  C:0D75H         LINE#         185
  C:0D75H         LINE#         186
  C:0D75H         LINE#         187
  C:0D75H         LINE#         188
  C:0D75H         LINE#         189
  C:0D75H         LINE#         190
  C:0D75H         LINE#         191
  -------         ENDPROC       SERIAL_0_INTERRUPT
  -------         PROC          UARTSEND_COLLIDE_TASK
  C:17BDH         LINE#         200
  C:17BDH         LINE#         201
  C:17BDH         LINE#         202
  C:17C2H         LINE#         203
  C:17C2H         LINE#         204
  C:17C7H         LINE#         206
  C:17C9H         LINE#         208
  C:17D0H         LINE#         209
  C:17D0H         LINE#         210
  C:17D3H         LINE#         211
BL51 BANKED LINKER/LOCATER V6.22                                                      05/20/2019  16:41:19  PAGE 28


  C:17D7H         LINE#         213
  C:17D7H         LINE#         214
  C:17E1H         LINE#         215
  C:17E1H         LINE#         216
  -------         ENDPROC       UARTSEND_COLLIDE_TASK
  -------         PROC          UART_COMMUNICATION
  -------         DO            
  D:006AH         SYMBOL        i
  D:006BH         SYMBOL        pi
  D:006EH         SYMBOL        xorsum
  D:0070H         SYMBOL        xorsum1
  -------         ENDDO         
  C:0E1CH         LINE#         224
  C:0E1CH         LINE#         225
  C:0E1CH         LINE#         228
  C:0E25H         LINE#         230
  C:0E2AH         LINE#         231
  C:0E2AH         LINE#         232
  C:0E2DH         LINE#         233
  C:0E30H         LINE#         234
  C:0E39H         LINE#         236
  C:0E39H         LINE#         237
  C:0E3EH         LINE#         238
  C:0E3EH         LINE#         239
  C:0E41H         LINE#         240
  C:0E4AH         LINE#         241
  C:0E60H         LINE#         242
  C:0E60H         LINE#         243
  C:0E72H         LINE#         244
  C:0E76H         LINE#         245
  C:0E9AH         LINE#         246
  C:0EA4H         LINE#         248
  C:0EA8H         LINE#         249
  C:0EA8H         LINE#         250
  C:0EABH         LINE#         251
  C:0EADH         LINE#         253
  C:0EADH         LINE#         254
  C:0EB0H         LINE#         255
  C:0EB0H         LINE#         256
  C:0EB3H         LINE#         257
  C:0EB3H         LINE#         258
  -------         ENDPROC       UART_COMMUNICATION
  -------         PROC          _UART_TASK
  D:0001H         SYMBOL        pr
  -------         DO            
  D:0072H         SYMBOL        Temp16
  D:0001H         SYMBOL        pi
  D:0007H         SYMBOL        tempH
  D:0074H         SYMBOL        tempL
  D:0007H         SYMBOL        CMD
  D:0075H         SYMBOL        FeedBack
  -------         ENDDO         
  C:095AH         LINE#         267
  C:095AH         LINE#         268
  C:095AH         LINE#         269
  C:095FH         LINE#         271
  C:095FH         LINE#         273
BL51 BANKED LINKER/LOCATER V6.22                                                      05/20/2019  16:41:19  PAGE 29


  C:0966H         LINE#         274
  C:096EH         LINE#         275
  C:0975H         LINE#         276
  C:097CH         LINE#         277
  C:0984H         LINE#         279
  C:09D9H         LINE#         280
  C:09D9H         LINE#         281
  C:09D9H         LINE#         282
  C:09DCH         LINE#         283
  C:09DFH         LINE#         284
  C:09E2H         LINE#         285
  C:09E3H         LINE#         289
  C:09E3H         LINE#         290
  C:09E8H         LINE#         291
  C:09E8H         LINE#         292
  C:09EAH         LINE#         293
  C:09EDH         LINE#         294
  C:09F2H         LINE#         295
  C:09F2H         LINE#         296
  C:09F4H         LINE#         297
  C:09F7H         LINE#         298
  C:0A00H         LINE#         299
  C:0A00H         LINE#         300
  C:0A02H         LINE#         301
  C:0A02H         LINE#         302
  C:0A05H         LINE#         303
  C:0A05H         LINE#         304
  C:0A0AH         LINE#         305
  C:0A0AH         LINE#         306
  C:0A0CH         LINE#         307
  C:0A0FH         LINE#         308
  C:0A14H         LINE#         309
  C:0A14H         LINE#         310
  C:0A16H         LINE#         311
  C:0A19H         LINE#         312
  C:0A22H         LINE#         313
  C:0A22H         LINE#         314
  C:0A24H         LINE#         315
  C:0A24H         LINE#         316
  C:0A26H         LINE#         321
  C:0A26H         LINE#         322
  C:0A2CH         LINE#         323
  C:0A2CH         LINE#         324
  C:0A2EH         LINE#         325
  C:0A2EH         LINE#         326
  C:0A30H         LINE#         327
  C:0A30H         LINE#         328
  C:0A36H         LINE#         329
  C:0A36H         LINE#         330
  C:0A38H         LINE#         331
  C:0A38H         LINE#         332
  C:0A3AH         LINE#         333
  C:0A3AH         LINE#         334
  C:0A40H         LINE#         335
  C:0A40H         LINE#         336
  C:0A42H         LINE#         337
  C:0A42H         LINE#         338
BL51 BANKED LINKER/LOCATER V6.22                                                      05/20/2019  16:41:19  PAGE 30


  C:0A44H         LINE#         342
  C:0A44H         LINE#         343
  C:0A47H         LINE#         344
  C:0A49H         LINE#         345
  C:0A4BH         LINE#         350
  C:0A4BH         LINE#         351
  C:0A4EH         LINE#         352
  C:0A50H         LINE#         353
  C:0A52H         LINE#         358
  C:0A52H         LINE#         360
  C:0A52H         LINE#         361
  C:0A52H         LINE#         362
  C:0A55H         LINE#         363
  C:0A57H         LINE#         364
  C:0A59H         LINE#         365
  C:0A59H         LINE#         366
  C:0A5CH         LINE#         367
  C:0A5EH         LINE#         368
  C:0A60H         LINE#         369
  C:0A60H         LINE#         370
  C:0A63H         LINE#         371
  C:0A65H         LINE#         372
  C:0A67H         LINE#         373
  C:0A67H         LINE#         375
  C:0A67H         LINE#         379
  C:0A67H         LINE#         380
  C:0A6DH         LINE#         381
  C:0A6FH         LINE#         382
  C:0A71H         LINE#         383
  C:0A71H         LINE#         384
  C:0A77H         LINE#         385
  C:0A79H         LINE#         386
  C:0A7BH         LINE#         387
  C:0A7BH         LINE#         388
  C:0A81H         LINE#         389
  C:0A83H         LINE#         390
  C:0A85H         LINE#         395
  C:0A85H         LINE#         396
  C:0A8BH         LINE#         397
  C:0A8DH         LINE#         398
  C:0A8FH         LINE#         400
  C:0A8FH         LINE#         401
  C:0A95H         LINE#         402
  C:0A97H         LINE#         403
  C:0A99H         LINE#         405
  C:0A99H         LINE#         406
  C:0A9FH         LINE#         407
  C:0AA4H         LINE#         408
  C:0AA4H         LINE#         409
  C:0AA4H         LINE#         410
  C:0AA4H         LINE#         411
  C:0AA4H         LINE#         412
  -------         ENDPROC       _UART_TASK
  -------         PROC          _UART_SENDCMD
  D:0007H         SYMBOL        CMD
  D:0005H         SYMBOL        feedback
  D:0002H         SYMBOL        dat
BL51 BANKED LINKER/LOCATER V6.22                                                      05/20/2019  16:41:19  PAGE 31


  C:1796H         LINE#         425
  C:1796H         LINE#         426
  C:1796H         LINE#         427
  C:1799H         LINE#         428
  C:179CH         LINE#         429
  C:179EH         LINE#         430
  C:17A0H         LINE#         431
  C:17A2H         LINE#         432
  C:17A4H         LINE#         433
  C:17AFH         LINE#         434
  C:17B9H         LINE#         435
  C:17BCH         LINE#         436
  -------         ENDPROC       _UART_SENDCMD
  -------         PROC          _DOSUM
  D:0072H         SYMBOL        Str
  D:0005H         SYMBOL        len
  -------         DO            
  D:0075H         SYMBOL        xorsum
  D:0004H         SYMBOL        i
  -------         ENDDO         
  C:13CCH         LINE#         449
  C:13D2H         LINE#         450
  C:13D2H         LINE#         451
  C:13D7H         LINE#         454
  C:13DDH         LINE#         455
  C:13DDH         LINE#         456
  C:13F4H         LINE#         457
  C:13F7H         LINE#         458
  C:1402H         LINE#         459
  C:1410H         LINE#         460
  -------         ENDPROC       _DOSUM
  -------         ENDMOD        UART

  -------         MODULE        LCD1602
  C:0000H         SYMBOL        _ICE_DUMMY_
  D:0080H         PUBLIC        P0
  D:0090H         PUBLIC        P1
  D:00A0H         PUBLIC        P2
  D:00B0H         PUBLIC        P3
  C:18E5H         PUBLIC        _LCD1602_DispChar
  C:1640H         PUBLIC        _GotoNextDevice
  C:1603H         PUBLIC        _Disp_PlayMode
  C:1195H         PUBLIC        LCD1602_Init
  C:112DH         PUBLIC        _ChangeDevice
  C:176BH         PUBLIC        _GoInitDevice
  C:131FH         PUBLIC        _Disp_PlayEQ
  C:1678H         PUBLIC        _LCD1602_wcmd
  C:1880H         PUBLIC        _LCD1602_DispDat
  C:1420H         PUBLIC        _Disp_OnlineDevice
  C:11FDH         PUBLIC        ReturnLcdInit
  C:173FH         PUBLIC        _LCD1602_wdat
  C:1989H         PUBLIC        _LCD1602_Pos
  C:15C9H         PUBLIC        _LCD1602_DispStr
  B:00A0H.7       PUBLIC        ep
  C:18B4H         PUBLIC        LCD1602_bz
  C:146FH         PUBLIC        _Disp_PlayDevice
  B:00A0H.6       PUBLIC        rs
BL51 BANKED LINKER/LOCATER V6.22                                                      05/20/2019  16:41:19  PAGE 32


  C:14B8H         SYMBOL        _DispDevice
  D:00C8H         PUBLIC        T2CON
  C:195BH         PUBLIC        LCD1602_Clear
  B:00A0H.5       PUBLIC        rw
  C:196BH         PUBLIC        _LCD1602_ClearLine
  -------         PROC          LCD1602_BZ
  -------         DO            
  D:0007H         SYMBOL        result
  -------         ENDDO         
  C:18B4H         LINE#         26
  C:18B4H         LINE#         27
  C:18B4H         LINE#         29
  C:18B6H         LINE#         30
  C:18B8H         LINE#         31
  C:18BAH         LINE#         32
  C:18C5H         LINE#         33
  C:18CAH         LINE#         34
  C:18CCH         LINE#         35
  C:18CCH         LINE#         36
  -------         ENDPROC       LCD1602_BZ
  -------         PROC          _LCD1602_WCMD
  D:0073H         SYMBOL        cmd
  C:1678H         LINE#         44
  C:167AH         LINE#         45
  C:167AH         LINE#         46
  C:1680H         LINE#         47
  C:1682H         LINE#         48
  C:1684H         LINE#         49
  C:1686H         LINE#         50
  C:1691H         LINE#         51
  C:1694H         LINE#         52
  C:169FH         LINE#         53
  C:16A1H         LINE#         54
  C:16ACH         LINE#         55
  C:16AEH         LINE#         56
  -------         ENDPROC       _LCD1602_WCMD
  -------         PROC          _LCD1602_WDAT
  D:0073H         SYMBOL        dat
  C:173FH         LINE#         64
  C:1741H         LINE#         65
  C:1741H         LINE#         66
  C:1747H         LINE#         67
  C:1749H         LINE#         68
  C:174BH         LINE#         69
  C:174DH         LINE#         70
  C:1750H         LINE#         71
  C:175BH         LINE#         72
  C:175DH         LINE#         73
  C:1768H         LINE#         74
  C:176AH         LINE#         75
  -------         ENDPROC       _LCD1602_WDAT
  -------         PROC          _LCD1602_POS
  D:0007H         SYMBOL        pos
  C:1989H         LINE#         84
  C:1989H         LINE#         85
  C:1989H         LINE#         86
  -------         ENDPROC       _LCD1602_POS
BL51 BANKED LINKER/LOCATER V6.22                                                      05/20/2019  16:41:19  PAGE 33


  -------         PROC          LCD1602_CLEAR
  C:195BH         LINE#         97
  C:195BH         LINE#         98
  C:195BH         LINE#         99
  C:1960H         LINE#         100
  -------         ENDPROC       LCD1602_CLEAR
  -------         PROC          _LCD1602_CLEARLINE
  D:0007H         SYMBOL        x
  C:196BH         LINE#         110
  C:196BH         LINE#         111
  C:196BH         LINE#         112
  -------         ENDPROC       _LCD1602_CLEARLINE
  -------         PROC          _LCD1602_DISPCHAR
  D:0007H         SYMBOL        x
  D:0071H         SYMBOL        y
  D:0072H         SYMBOL        ch
  C:18E5H         LINE#         124
  C:18E9H         LINE#         125
  C:18E9H         LINE#         126
  C:18ECH         LINE#         127
  C:18ECH         LINE#         128
  C:18F1H         LINE#         129
  C:18F3H         LINE#         131
  C:18F3H         LINE#         132
  C:18F8H         LINE#         133
  C:18F8H         LINE#         134
  -------         ENDPROC       _LCD1602_DISPCHAR
  -------         PROC          _LCD1602_DISPDAT
  D:0007H         SYMBOL        x
  D:006AH         SYMBOL        y
  D:006BH         SYMBOL        ch
  C:1880H         LINE#         146
  C:1884H         LINE#         147
  C:1884H         LINE#         148
  C:1887H         LINE#         149
  C:1887H         LINE#         150
  C:188CH         LINE#         151
  C:188EH         LINE#         153
  C:188EH         LINE#         154
  C:1893H         LINE#         155
  C:1893H         LINE#         156
  -------         ENDPROC       _LCD1602_DISPDAT
  -------         PROC          L?0149
  -------         ENDPROC       L?0149
  -------         PROC          _LCD1602_DISPSTR
  D:006CH         SYMBOL        x
  D:006DH         SYMBOL        y
  D:006EH         SYMBOL        str
  C:15C9H         LINE#         167
  C:15D3H         LINE#         168
  C:15D3H         LINE#         169
  C:15E0H         LINE#         170
  C:15E0H         LINE#         172
  C:15E0H         LINE#         173
  C:15ECH         LINE#         174
  C:15ECH         LINE#         175
  C:15F3H         LINE#         176
BL51 BANKED LINKER/LOCATER V6.22                                                      05/20/2019  16:41:19  PAGE 34


  C:15FEH         LINE#         177
  C:1600H         LINE#         178
  C:1602H         LINE#         179
  -------         ENDPROC       _LCD1602_DISPSTR
  -------         PROC          _DISPDEVICE
  D:0007H         SYMBOL        device
  C:14B8H         LINE#         187
  C:14B8H         LINE#         188
  C:14B8H         LINE#         189
  C:14CAH         LINE#         190
  C:14CAH         LINE#         192
  C:14CAH         LINE#         193
  C:14D0H         LINE#         194
  C:14D2H         LINE#         196
  C:14D2H         LINE#         197
  C:14D8H         LINE#         198
  C:14DAH         LINE#         200
  C:14DAH         LINE#         201
  C:14E0H         LINE#         202
  C:14E2H         LINE#         204
  C:14E2H         LINE#         205
  C:14E8H         LINE#         206
  C:14EAH         LINE#         208
  C:14EAH         LINE#         209
  C:14F0H         LINE#         210
  C:14F2H         LINE#         212
  C:14F2H         LINE#         213
  C:14FFH         LINE#         214
  C:14FFH         LINE#         215
  C:14FFH         LINE#         216
  -------         ENDPROC       _DISPDEVICE
  -------         PROC          RETURNLCDINIT
  C:11FDH         LINE#         225
  C:11FDH         LINE#         226
  C:11FDH         LINE#         227
  C:1202H         LINE#         228
  C:1208H         LINE#         229
  C:1208H         LINE#         230
  C:120EH         LINE#         231
  C:1210H         LINE#         233
  C:1210H         LINE#         234
  C:121BH         LINE#         235
  C:121BH         LINE#         246
  C:1220H         LINE#         247
  C:1220H         LINE#         248
  C:1226H         LINE#         249
  C:1228H         LINE#         250
  C:122DH         LINE#         251
  C:122DH         LINE#         252
  C:1233H         LINE#         253
  C:1235H         LINE#         254
  C:123AH         LINE#         255
  C:123AH         LINE#         256
  C:1247H         LINE#         257
  C:1247H         LINE#         258
  C:124EH         LINE#         259
  C:124EH         LINE#         260
BL51 BANKED LINKER/LOCATER V6.22                                                      05/20/2019  16:41:19  PAGE 35


  C:1252H         LINE#         261
  C:1254H         LINE#         263
  C:1254H         LINE#         264
  C:125FH         LINE#         265
  C:125FH         LINE#         266
  -------         ENDPROC       RETURNLCDINIT
  -------         PROC          _DISP_PLAYDEVICE
  D:006AH         SYMBOL        device
  C:146FH         LINE#         275
  C:1471H         LINE#         276
  C:1471H         LINE#         277
  C:1476H         LINE#         278
  C:1476H         LINE#         279
  C:147CH         LINE#         280
  C:147EH         LINE#         281
  C:1483H         LINE#         282
  C:1483H         LINE#         283
  C:1489H         LINE#         284
  C:148BH         LINE#         285
  C:1490H         LINE#         286
  C:1490H         LINE#         287
  C:1496H         LINE#         288
  C:1498H         LINE#         289
  C:149DH         LINE#         290
  C:149DH         LINE#         291
  C:14A3H         LINE#         292
  C:14A5H         LINE#         293
  C:14AAH         LINE#         294
  C:14AAH         LINE#         295
  C:14B7H         LINE#         296
  C:14B7H         LINE#         297
  -------         ENDPROC       _DISP_PLAYDEVICE
  -------         PROC          _DISP_PLAYMODE
  D:006AH         SYMBOL        mode
  C:1603H         LINE#         306
  C:1605H         LINE#         307
  C:1605H         LINE#         308
  C:1609H         LINE#         309
  C:1609H         LINE#         310
  C:160FH         LINE#         311
  C:1611H         LINE#         312
  C:1616H         LINE#         313
  C:1616H         LINE#         314
  C:161DH         LINE#         315
  C:161FH         LINE#         316
  C:1624H         LINE#         317
  C:1624H         LINE#         318
  C:162BH         LINE#         319
  C:162DH         LINE#         320
  C:1632H         LINE#         321
  C:1632H         LINE#         322
  C:163FH         LINE#         323
  C:163FH         LINE#         324
  -------         ENDPROC       _DISP_PLAYMODE
  -------         PROC          _DISP_PLAYEQ
  D:006AH         SYMBOL        EQ
  C:131FH         LINE#         333
BL51 BANKED LINKER/LOCATER V6.22                                                      05/20/2019  16:41:19  PAGE 36


  C:1321H         LINE#         334
  C:1321H         LINE#         335
  C:1325H         LINE#         336
  C:1325H         LINE#         337
  C:132BH         LINE#         338
  C:132DH         LINE#         339
  C:1332H         LINE#         340
  C:1332H         LINE#         341
  C:1339H         LINE#         342
  C:133BH         LINE#         343
  C:1340H         LINE#         344
  C:1340H         LINE#         345
  C:1347H         LINE#         346
  C:1349H         LINE#         347
  C:134EH         LINE#         348
  C:134EH         LINE#         349
  C:1355H         LINE#         350
  C:1357H         LINE#         351
  C:135CH         LINE#         352
  C:135CH         LINE#         353
  C:1363H         LINE#         354
  C:1365H         LINE#         355
  C:136AH         LINE#         356
  C:136AH         LINE#         357
  C:1377H         LINE#         358
  C:1377H         LINE#         359
  -------         ENDPROC       _DISP_PLAYEQ
  -------         PROC          _DISP_ONLINEDEVICE
  D:006AH         SYMBOL        Online
  -------         DO            
  D:006BH         SYMBOL        temp
  -------         ENDDO         
  C:1420H         LINE#         368
  C:1422H         LINE#         369
  C:1422H         LINE#         371
  C:1428H         LINE#         372
  C:142AH         LINE#         373
  C:142AH         LINE#         374
  C:1433H         LINE#         375
  C:1433H         LINE#         376
  C:1439H         LINE#         377
  C:143BH         LINE#         378
  C:143BH         LINE#         379
  C:1444H         LINE#         380
  C:1444H         LINE#         381
  C:144AH         LINE#         382
  C:144CH         LINE#         383
  C:144CH         LINE#         384
  C:1459H         LINE#         385
  C:1459H         LINE#         386
  C:145FH         LINE#         387
  C:1461H         LINE#         388
  C:1461H         LINE#         389
  C:146EH         LINE#         390
  C:146EH         LINE#         391
  -------         ENDPROC       _DISP_ONLINEDEVICE
  -------         PROC          _GOINITDEVICE
BL51 BANKED LINKER/LOCATER V6.22                                                      05/20/2019  16:41:19  PAGE 37


  D:0007H         SYMBOL        Online
  -------         DO            
  D:0006H         SYMBOL        temp
  -------         ENDDO         
  C:176BH         LINE#         400
  C:176BH         LINE#         401
  C:176BH         LINE#         403
  C:176EH         LINE#         404
  C:176EH         LINE#         405
  C:1772H         LINE#         407
  C:1772H         LINE#         408
  C:1775H         LINE#         409
  C:1777H         LINE#         410
  C:1777H         LINE#         411
  C:177BH         LINE#         413
  C:177BH         LINE#         414
  C:177EH         LINE#         415
  C:1780H         LINE#         416
  C:1780H         LINE#         417
  C:1784H         LINE#         419
  C:1784H         LINE#         420
  C:1787H         LINE#         421
  C:1789H         LINE#         422
  C:1789H         LINE#         423
  C:178DH         LINE#         425
  C:178DH         LINE#         426
  C:1790H         LINE#         427
  C:1792H         LINE#         428
  C:1792H         LINE#         429
  C:1795H         LINE#         431
  C:1795H         LINE#         432
  -------         ENDPROC       _GOINITDEVICE
  -------         PROC          _GOTONEXTDEVICE
  D:0007H         SYMBOL        device
  C:1640H         LINE#         441
  C:1640H         LINE#         442
  C:1640H         LINE#         443
  C:1643H         LINE#         444
  C:1643H         LINE#         445
  C:1648H         LINE#         446
  C:1648H         LINE#         447
  C:164BH         LINE#         448
  C:164CH         LINE#         450
  C:164CH         LINE#         451
  C:1651H         LINE#         452
  C:1651H         LINE#         453
  C:1651H         LINE#         454
  C:1653H         LINE#         461
  C:1656H         LINE#         462
  C:1656H         LINE#         463
  C:165BH         LINE#         464
  C:165BH         LINE#         465
  C:165EH         LINE#         466
  C:165FH         LINE#         468
  C:165FH         LINE#         469
  C:1664H         LINE#         470
  C:1664H         LINE#         471
BL51 BANKED LINKER/LOCATER V6.22                                                      05/20/2019  16:41:19  PAGE 38


  C:1664H         LINE#         472
  C:1666H         LINE#         474
  C:1666H         LINE#         475
  C:1666H         LINE#         476
  C:1666H         LINE#         477
  C:1666H         LINE#         478
  C:1668H         LINE#         479
  C:166BH         LINE#         480
  C:166BH         LINE#         481
  C:1670H         LINE#         482
  C:1670H         LINE#         483
  C:1673H         LINE#         484
  C:1674H         LINE#         486
  C:1674H         LINE#         487
  C:1677H         LINE#         488
  C:1677H         LINE#         489
  C:1677H         LINE#         491
  -------         ENDPROC       _GOTONEXTDEVICE
  -------         PROC          _CHANGEDEVICE
  D:0003H         SYMBOL        dev
  C:112DH         LINE#         493
  C:112FH         LINE#         494
  C:112FH         LINE#         495
  C:1134H         LINE#         496
  C:1134H         LINE#         497
  C:113CH         LINE#         498
  C:113CH         LINE#         499
  C:1141H         LINE#         500
  C:1141H         LINE#         501
  C:1144H         LINE#         502
  C:1146H         LINE#         504
  C:1146H         LINE#         505
  C:114BH         LINE#         506
  C:114BH         LINE#         507
  C:114EH         LINE#         508
  C:1150H         LINE#         510
  C:1150H         LINE#         511
  C:1153H         LINE#         512
  C:1153H         LINE#         513
  C:1153H         LINE#         514
  C:1153H         LINE#         515
  C:1153H         LINE#         516
  C:1158H         LINE#         517
  C:1158H         LINE#         518
  C:1160H         LINE#         519
  C:1160H         LINE#         520
  C:1165H         LINE#         521
  C:1165H         LINE#         522
  C:1168H         LINE#         523
  C:1169H         LINE#         525
  C:1169H         LINE#         526
  C:116EH         LINE#         527
  C:116EH         LINE#         528
  C:116EH         LINE#         529
  C:1170H         LINE#         537
  C:1173H         LINE#         538
  C:1173H         LINE#         539
BL51 BANKED LINKER/LOCATER V6.22                                                      05/20/2019  16:41:19  PAGE 39


  C:117BH         LINE#         540
  C:117BH         LINE#         541
  C:1180H         LINE#         542
  C:1180H         LINE#         543
  C:1183H         LINE#         544
  C:1184H         LINE#         546
  C:1184H         LINE#         547
  C:1184H         LINE#         548
  C:1184H         LINE#         549
  C:1184H         LINE#         550
  C:1186H         LINE#         551
  C:1189H         LINE#         552
  C:1189H         LINE#         553
  C:1191H         LINE#         554
  C:1191H         LINE#         555
  C:1194H         LINE#         556
  C:1194H         LINE#         557
  C:1194H         LINE#         558
  -------         ENDPROC       _CHANGEDEVICE
  -------         PROC          LCD1602_INIT
  C:1195H         LINE#         567
  C:1195H         LINE#         568
  C:1195H         LINE#         569
  C:119AH         LINE#         570
  C:11A5H         LINE#         571
  C:11AAH         LINE#         572
  C:11B5H         LINE#         573
  C:11BAH         LINE#         574
  C:11C5H         LINE#         575
  C:11CAH         LINE#         576
  C:11D5H         LINE#         577
  C:11DCH         LINE#         578
  C:11E8H         LINE#         579
  C:11F5H         LINE#         580
  C:11F8H         LINE#         581
  -------         ENDPROC       LCD1602_INIT
  -------         ENDMOD        LCD1602

  -------         MODULE        ?C?CLDPTR
  C:0AA5H         PUBLIC        ?C?CLDPTR
  -------         ENDMOD        ?C?CLDPTR

  -------         MODULE        ?C?CLDOPTR
  C:0ABEH         PUBLIC        ?C?CLDOPTR
  -------         ENDMOD        ?C?CLDOPTR

  -------         MODULE        ?C?CSTOPTR
  C:0AEBH         PUBLIC        ?C?CSTOPTR
  -------         ENDMOD        ?C?CSTOPTR

  -------         MODULE        ?C?IMUL
  C:0B0DH         PUBLIC        ?C?IMUL
  -------         ENDMOD        ?C?IMUL

  -------         MODULE        ?C?UIDIV
  C:0B1FH         PUBLIC        ?C?UIDIV
  -------         ENDMOD        ?C?UIDIV
BL51 BANKED LINKER/LOCATER V6.22                                                      05/20/2019  16:41:19  PAGE 40



  -------         MODULE        ?C?ULCMP
  C:0B74H         PUBLIC        ?C?ULCMP
  -------         ENDMOD        ?C?ULCMP

  -------         MODULE        ?C?LLDIIDATA
  C:0B8EH         PUBLIC        ?C?LLDIIDATA
  C:0B85H         PUBLIC        ?C?LLDIIDATA1
  C:0B87H         PUBLIC        ?C?LLDIIDATA8
  -------         ENDMOD        ?C?LLDIIDATA

  -------         MODULE        ?C?CCASE
  C:0BA5H         PUBLIC        ?C?CCASE
  -------         ENDMOD        ?C?CCASE

*** WARNING L16: UNCALLED SEGMENT, IGNORED FOR OVERLAY PROCESS
    SEGMENT: ?CO?UART

Program Size: data=118.2 xdata=0 code=6543
LINK/LOCATE RUN COMPLETE.  1 WARNING(S),  0 ERROR(S)
